	.file	"clang.c"
	.text
	.def	scanf;	.scl	3;	.type	32;	.endef
	.seh_proc	scanf
scanf:
	pushq	%rbp
	.seh_pushreg	%rbp
	pushq	%rbx
	.seh_pushreg	%rbx
	subq	$56, %rsp
	.seh_stackalloc	56
	leaq	48(%rsp), %rbp
	.seh_setframe	%rbp, 48
	.seh_endprologue
	movq	%rcx, 32(%rbp)
	movq	%rdx, 40(%rbp)
	movq	%r8, 48(%rbp)
	movq	%r9, 56(%rbp)
	leaq	40(%rbp), %rax
	movq	%rax, -16(%rbp)
	movq	-16(%rbp), %rbx
	movl	$0, %ecx
	movq	__imp___acrt_iob_func(%rip), %rax
	call	*%rax
	movq	%rax, %rcx
	movq	32(%rbp), %rax
	movq	%rbx, %r8
	movq	%rax, %rdx
	call	__mingw_vfscanf
	movl	%eax, -4(%rbp)
	movl	-4(%rbp), %eax
	addq	$56, %rsp
	popq	%rbx
	popq	%rbp
	ret
	.seh_endproc
	.def	printf;	.scl	3;	.type	32;	.endef
	.seh_proc	printf
printf:
	pushq	%rbp
	.seh_pushreg	%rbp
	pushq	%rbx
	.seh_pushreg	%rbx
	subq	$56, %rsp
	.seh_stackalloc	56
	leaq	48(%rsp), %rbp
	.seh_setframe	%rbp, 48
	.seh_endprologue
	movq	%rcx, 32(%rbp)
	movq	%rdx, 40(%rbp)
	movq	%r8, 48(%rbp)
	movq	%r9, 56(%rbp)
	leaq	40(%rbp), %rax
	movq	%rax, -16(%rbp)
	movq	-16(%rbp), %rbx
	movl	$1, %ecx
	movq	__imp___acrt_iob_func(%rip), %rax
	call	*%rax
	movq	%rax, %rcx
	movq	32(%rbp), %rax
	movq	%rbx, %r8
	movq	%rax, %rdx
	call	__mingw_vfprintf
	movl	%eax, -4(%rbp)
	movl	-4(%rbp), %eax
	addq	$56, %rsp
	popq	%rbx
	popq	%rbp
	ret
	.seh_endproc
	.section .rdata,"dr"
	.align 8
.LC0:
	.ascii "Enter the length of Fibonacci sequence : \0"
.LC1:
	.ascii "%hu\0"
.LC2:
	.ascii "%hu\12\0"
.LC3:
	.ascii "Next number is too big\12\0"
	.align 8
.LC4:
	.ascii "Length of the computed sequence : %hu\12\0"
.LC5:
	.ascii "%llu\12\0"
	.text
	.globl	main
	.def	main;	.scl	2;	.type	32;	.endef
	.seh_proc	main
main:
	pushq	%rbp
	.seh_pushreg	%rbp
	movq	%rsp, %rbp
	.seh_setframe	%rbp, 0
	subq	$80, %rsp
	.seh_stackalloc	80
	.seh_endprologue
	call	__main
	leaq	.LC0(%rip), %rax
	movq	%rax, %rcx
	call	printf
	leaq	-34(%rbp), %rax
	movq	%rax, %rdx
	leaq	.LC1(%rip), %rax
	movq	%rax, %rcx
	call	scanf
	movq	$0, -8(%rbp)
	movq	$1, -16(%rbp)
	movw	$0, -18(%rbp)
	jmp	.L6
.L11:
	cmpw	$1, -18(%rbp)
	ja	.L7
	movzwl	-18(%rbp), %eax
	movl	%eax, %edx
	leaq	.LC2(%rip), %rax
	movq	%rax, %rcx
	call	printf
	jmp	.L8
.L7:
	movq	-8(%rbp), %rdx
	movq	-16(%rbp), %rax
	addq	%rdx, %rax
	movq	%rax, -32(%rbp)
	movq	-16(%rbp), %rax
	movq	%rax, -8(%rbp)
	movq	-32(%rbp), %rax
	movq	%rax, -16(%rbp)
	movq	-32(%rbp), %rax
	cmpq	-8(%rbp), %rax
	jnb	.L9
	leaq	.LC3(%rip), %rax
	movq	%rax, %rcx
	call	printf
	movzwl	-18(%rbp), %eax
	movl	%eax, %edx
	leaq	.LC4(%rip), %rax
	movq	%rax, %rcx
	call	printf
	jmp	.L10
.L9:
	movq	-32(%rbp), %rax
	movq	%rax, %rdx
	leaq	.LC5(%rip), %rax
	movq	%rax, %rcx
	call	printf
.L8:
	movzwl	-18(%rbp), %eax
	addl	$1, %eax
	movw	%ax, -18(%rbp)
.L6:
	movzwl	-34(%rbp), %eax
	cmpw	%ax, -18(%rbp)
	jb	.L11
.L10:
	movl	$0, %eax
	addq	$80, %rsp
	popq	%rbp
	ret
	.seh_endproc
	.def	__main;	.scl	2;	.type	32;	.endef
	.ident	"GCC: (x86_64-win32-seh-rev2, Built by MinGW-Builds project) 14.2.0"
	.def	__mingw_vfscanf;	.scl	2;	.type	32;	.endef
	.def	__mingw_vfprintf;	.scl	2;	.type	32;	.endef
